ARM GAS  C:\Users\Tommi\AppData\Local\Temp\ccQC427g.s 			page 1


   1              		.syntax unified
   2              		.cpu cortex-m3
   3              		.fpu softvfp
   4              		.eabi_attribute 20, 1
   5              		.eabi_attribute 21, 1
   6              		.eabi_attribute 23, 3
   7              		.eabi_attribute 24, 1
   8              		.eabi_attribute 25, 1
   9              		.eabi_attribute 26, 1
  10              		.eabi_attribute 30, 1
  11              		.eabi_attribute 34, 1
  12              		.eabi_attribute 18, 4
  13              		.thumb
  14              		.file	"ADC_DelSig_INT.c"
  15              		.text
  16              	.Ltext0:
  17              		.cfi_sections	.debug_frame
  18              		.section	.text.ADC_DelSig_ISR1,"ax",%progbits
  19              		.align	2
  20              		.global	ADC_DelSig_ISR1
  21              		.thumb
  22              		.thumb_func
  23              		.type	ADC_DelSig_ISR1, %function
  24              	ADC_DelSig_ISR1:
  25              	.LFB63:
  26              		.file 1 "Generated_Source\\PSoC5\\ADC_DelSig_INT.c"
   1:Generated_Source\PSoC5/ADC_DelSig_INT.c **** /*******************************************************************************
   2:Generated_Source\PSoC5/ADC_DelSig_INT.c **** * File Name: ADC_DelSig_INT.c
   3:Generated_Source\PSoC5/ADC_DelSig_INT.c **** * Version 3.20
   4:Generated_Source\PSoC5/ADC_DelSig_INT.c **** *
   5:Generated_Source\PSoC5/ADC_DelSig_INT.c **** * Description:
   6:Generated_Source\PSoC5/ADC_DelSig_INT.c **** *  This file contains the code that operates during the ADC_DelSig interrupt
   7:Generated_Source\PSoC5/ADC_DelSig_INT.c **** *  service routine.
   8:Generated_Source\PSoC5/ADC_DelSig_INT.c **** *
   9:Generated_Source\PSoC5/ADC_DelSig_INT.c **** * Note:
  10:Generated_Source\PSoC5/ADC_DelSig_INT.c **** *
  11:Generated_Source\PSoC5/ADC_DelSig_INT.c **** ********************************************************************************
  12:Generated_Source\PSoC5/ADC_DelSig_INT.c **** * Copyright 2008-2015, Cypress Semiconductor Corporation.  All rights reserved.
  13:Generated_Source\PSoC5/ADC_DelSig_INT.c **** * You may use this file only in accordance with the license, terms, conditions,
  14:Generated_Source\PSoC5/ADC_DelSig_INT.c **** * disclaimers, and limitations in the end user license agreement accompanying
  15:Generated_Source\PSoC5/ADC_DelSig_INT.c **** * the software package with which this file was provided.
  16:Generated_Source\PSoC5/ADC_DelSig_INT.c **** *******************************************************************************/
  17:Generated_Source\PSoC5/ADC_DelSig_INT.c **** 
  18:Generated_Source\PSoC5/ADC_DelSig_INT.c **** #include "ADC_DelSig.h"
  19:Generated_Source\PSoC5/ADC_DelSig_INT.c **** #include "cyapicallbacks.h"
  20:Generated_Source\PSoC5/ADC_DelSig_INT.c **** #include "global.h"
  21:Generated_Source\PSoC5/ADC_DelSig_INT.c **** 
  22:Generated_Source\PSoC5/ADC_DelSig_INT.c **** 
  23:Generated_Source\PSoC5/ADC_DelSig_INT.c **** /*******************************************************************************
  24:Generated_Source\PSoC5/ADC_DelSig_INT.c **** * Custom Declarations and Variables
  25:Generated_Source\PSoC5/ADC_DelSig_INT.c **** * - add user include files, prototypes and variables between the following
  26:Generated_Source\PSoC5/ADC_DelSig_INT.c **** *   #START and #END tags
  27:Generated_Source\PSoC5/ADC_DelSig_INT.c **** *******************************************************************************/
  28:Generated_Source\PSoC5/ADC_DelSig_INT.c **** /* `#START ADC_SYS_VAR`  */
  29:Generated_Source\PSoC5/ADC_DelSig_INT.c **** 
  30:Generated_Source\PSoC5/ADC_DelSig_INT.c **** extern uint8 adc_new_data;
  31:Generated_Source\PSoC5/ADC_DelSig_INT.c **** extern int32 adc_input_data;
ARM GAS  C:\Users\Tommi\AppData\Local\Temp\ccQC427g.s 			page 2


  32:Generated_Source\PSoC5/ADC_DelSig_INT.c **** 
  33:Generated_Source\PSoC5/ADC_DelSig_INT.c **** /* `#END`  */
  34:Generated_Source\PSoC5/ADC_DelSig_INT.c **** 
  35:Generated_Source\PSoC5/ADC_DelSig_INT.c **** #if(ADC_DelSig_IRQ_REMOVE == 0u)
  36:Generated_Source\PSoC5/ADC_DelSig_INT.c **** 
  37:Generated_Source\PSoC5/ADC_DelSig_INT.c **** 
  38:Generated_Source\PSoC5/ADC_DelSig_INT.c ****     /*****************************************************************************
  39:Generated_Source\PSoC5/ADC_DelSig_INT.c ****     * Function Name: ADC_DelSig_ISR1
  40:Generated_Source\PSoC5/ADC_DelSig_INT.c ****     ******************************************************************************
  41:Generated_Source\PSoC5/ADC_DelSig_INT.c ****     *
  42:Generated_Source\PSoC5/ADC_DelSig_INT.c ****     * Summary:
  43:Generated_Source\PSoC5/ADC_DelSig_INT.c ****     *  Handle Interrupt Service Routine.
  44:Generated_Source\PSoC5/ADC_DelSig_INT.c ****     *
  45:Generated_Source\PSoC5/ADC_DelSig_INT.c ****     * Parameters:
  46:Generated_Source\PSoC5/ADC_DelSig_INT.c ****     *  None
  47:Generated_Source\PSoC5/ADC_DelSig_INT.c ****     *
  48:Generated_Source\PSoC5/ADC_DelSig_INT.c ****     * Return:
  49:Generated_Source\PSoC5/ADC_DelSig_INT.c ****     *  None
  50:Generated_Source\PSoC5/ADC_DelSig_INT.c ****     *
  51:Generated_Source\PSoC5/ADC_DelSig_INT.c ****     * Reentrant:
  52:Generated_Source\PSoC5/ADC_DelSig_INT.c ****     *  No
  53:Generated_Source\PSoC5/ADC_DelSig_INT.c ****     *
  54:Generated_Source\PSoC5/ADC_DelSig_INT.c ****     *****************************************************************************/
  55:Generated_Source\PSoC5/ADC_DelSig_INT.c ****     CY_ISR( ADC_DelSig_ISR1)
  56:Generated_Source\PSoC5/ADC_DelSig_INT.c ****     {
  27              		.loc 1 56 0
  28              		.cfi_startproc
  29              		@ args = 0, pretend = 0, frame = 0
  30              		@ frame_needed = 0, uses_anonymous_args = 0
  31 0000 08B5     		push	{r3, lr}
  32              		.cfi_def_cfa_offset 8
  33              		.cfi_offset 3, -8
  34              		.cfi_offset 14, -4
  57:Generated_Source\PSoC5/ADC_DelSig_INT.c ****         #ifdef ADC_DelSig_ISR1_ENTRY_CALLBACK
  58:Generated_Source\PSoC5/ADC_DelSig_INT.c ****             ADC_DelSig_ISR1_EntryCallback();
  59:Generated_Source\PSoC5/ADC_DelSig_INT.c ****         #endif /* ADC_DelSig_ISR1_ENTRY_CALLBACK */
  60:Generated_Source\PSoC5/ADC_DelSig_INT.c ****         
  61:Generated_Source\PSoC5/ADC_DelSig_INT.c **** 
  62:Generated_Source\PSoC5/ADC_DelSig_INT.c ****         /**************************************************************************
  63:Generated_Source\PSoC5/ADC_DelSig_INT.c ****         *  Custom Code
  64:Generated_Source\PSoC5/ADC_DelSig_INT.c ****         *  - add user ISR code between the following #START and #END tags
  65:Generated_Source\PSoC5/ADC_DelSig_INT.c ****         **************************************************************************/
  66:Generated_Source\PSoC5/ADC_DelSig_INT.c ****         /* `#START MAIN_ADC_ISR1`  */
  67:Generated_Source\PSoC5/ADC_DelSig_INT.c ****         adc_input_data = ADC_DelSig_GetResult32();
  35              		.loc 1 67 0
  36 0002 FFF7FEFF 		bl	ADC_DelSig_GetResult32
  37              	.LVL0:
  38 0006 034B     		ldr	r3, .L3
  39 0008 1860     		str	r0, [r3]
  68:Generated_Source\PSoC5/ADC_DelSig_INT.c ****         adc_new_data = 1u;
  40              		.loc 1 68 0
  41 000a 0122     		movs	r2, #1
  42 000c 024B     		ldr	r3, .L3+4
  43 000e 1A70     		strb	r2, [r3]
  44 0010 08BD     		pop	{r3, pc}
  45              	.L4:
  46 0012 00BF     		.align	2
ARM GAS  C:\Users\Tommi\AppData\Local\Temp\ccQC427g.s 			page 3


  47              	.L3:
  48 0014 00000000 		.word	adc_input_data
  49 0018 00000000 		.word	adc_new_data
  50              		.cfi_endproc
  51              	.LFE63:
  52              		.size	ADC_DelSig_ISR1, .-ADC_DelSig_ISR1
  53              		.section	.text.ADC_DelSig_ISR2,"ax",%progbits
  54              		.align	2
  55              		.global	ADC_DelSig_ISR2
  56              		.thumb
  57              		.thumb_func
  58              		.type	ADC_DelSig_ISR2, %function
  59              	ADC_DelSig_ISR2:
  60              	.LFB64:
  69:Generated_Source\PSoC5/ADC_DelSig_INT.c ****         /* `#END`  */
  70:Generated_Source\PSoC5/ADC_DelSig_INT.c ****         
  71:Generated_Source\PSoC5/ADC_DelSig_INT.c ****         /* Stop the conversion if conversion mode is single sample and resolution
  72:Generated_Source\PSoC5/ADC_DelSig_INT.c ****         *  is above 16 bits.
  73:Generated_Source\PSoC5/ADC_DelSig_INT.c ****         */
  74:Generated_Source\PSoC5/ADC_DelSig_INT.c ****         #if(ADC_DelSig_CFG1_RESOLUTION > 16 && \
  75:Generated_Source\PSoC5/ADC_DelSig_INT.c ****             ADC_DelSig_CFG1_CONV_MODE == ADC_DelSig_MODE_SINGLE_SAMPLE)
  76:Generated_Source\PSoC5/ADC_DelSig_INT.c ****             ADC_DelSig_StopConvert();
  77:Generated_Source\PSoC5/ADC_DelSig_INT.c ****             /* Software flag for checking conversion complete or not. Will be used when
  78:Generated_Source\PSoC5/ADC_DelSig_INT.c ****             *  resolution is above 16 bits and conversion mode is single sample 
  79:Generated_Source\PSoC5/ADC_DelSig_INT.c **** 			*/
  80:Generated_Source\PSoC5/ADC_DelSig_INT.c ****             ADC_DelSig_convDone = ADC_DelSig_DEC_CONV_DONE;
  81:Generated_Source\PSoC5/ADC_DelSig_INT.c ****         #endif /* Single sample conversion mode with resolution above 16 bits */
  82:Generated_Source\PSoC5/ADC_DelSig_INT.c **** 
  83:Generated_Source\PSoC5/ADC_DelSig_INT.c ****         #ifdef ADC_DelSig_ISR1_EXIT_CALLBACK
  84:Generated_Source\PSoC5/ADC_DelSig_INT.c ****             ADC_DelSig_ISR1_ExitCallback();
  85:Generated_Source\PSoC5/ADC_DelSig_INT.c ****         #endif /* ADC_DelSig_ISR1_EXIT_CALLBACK */
  86:Generated_Source\PSoC5/ADC_DelSig_INT.c ****     }
  87:Generated_Source\PSoC5/ADC_DelSig_INT.c **** 
  88:Generated_Source\PSoC5/ADC_DelSig_INT.c **** 
  89:Generated_Source\PSoC5/ADC_DelSig_INT.c ****     /*****************************************************************************
  90:Generated_Source\PSoC5/ADC_DelSig_INT.c ****     * Function Name: ADC_DelSig_ISR2
  91:Generated_Source\PSoC5/ADC_DelSig_INT.c ****     ******************************************************************************
  92:Generated_Source\PSoC5/ADC_DelSig_INT.c ****     *
  93:Generated_Source\PSoC5/ADC_DelSig_INT.c ****     * Summary:
  94:Generated_Source\PSoC5/ADC_DelSig_INT.c ****     *  Handle Interrupt Service Routine.
  95:Generated_Source\PSoC5/ADC_DelSig_INT.c ****     *
  96:Generated_Source\PSoC5/ADC_DelSig_INT.c ****     * Parameters:
  97:Generated_Source\PSoC5/ADC_DelSig_INT.c ****     *  None
  98:Generated_Source\PSoC5/ADC_DelSig_INT.c ****     *
  99:Generated_Source\PSoC5/ADC_DelSig_INT.c ****     * Return:
 100:Generated_Source\PSoC5/ADC_DelSig_INT.c ****     *  None
 101:Generated_Source\PSoC5/ADC_DelSig_INT.c ****     *
 102:Generated_Source\PSoC5/ADC_DelSig_INT.c ****     * Reentrant:
 103:Generated_Source\PSoC5/ADC_DelSig_INT.c ****     *  No
 104:Generated_Source\PSoC5/ADC_DelSig_INT.c ****     *
 105:Generated_Source\PSoC5/ADC_DelSig_INT.c ****     *****************************************************************************/
 106:Generated_Source\PSoC5/ADC_DelSig_INT.c ****     CY_ISR( ADC_DelSig_ISR2)
 107:Generated_Source\PSoC5/ADC_DelSig_INT.c ****     {
  61              		.loc 1 107 0
  62              		.cfi_startproc
  63              		@ args = 0, pretend = 0, frame = 0
  64              		@ frame_needed = 0, uses_anonymous_args = 0
ARM GAS  C:\Users\Tommi\AppData\Local\Temp\ccQC427g.s 			page 4


  65              		@ link register save eliminated.
  66 0000 7047     		bx	lr
  67              		.cfi_endproc
  68              	.LFE64:
  69              		.size	ADC_DelSig_ISR2, .-ADC_DelSig_ISR2
  70 0002 00BF     		.section	.text.ADC_DelSig_ISR3,"ax",%progbits
  71              		.align	2
  72              		.global	ADC_DelSig_ISR3
  73              		.thumb
  74              		.thumb_func
  75              		.type	ADC_DelSig_ISR3, %function
  76              	ADC_DelSig_ISR3:
  77              	.LFB65:
 108:Generated_Source\PSoC5/ADC_DelSig_INT.c ****         #ifdef ADC_DelSig_ISR2_ENTRY_CALLBACK
 109:Generated_Source\PSoC5/ADC_DelSig_INT.c ****             ADC_DelSig_ISR2_EntryCallback();
 110:Generated_Source\PSoC5/ADC_DelSig_INT.c ****         #endif /* ADC_DelSig_ISR2_ENTRY_CALLBACK */
 111:Generated_Source\PSoC5/ADC_DelSig_INT.c ****         
 112:Generated_Source\PSoC5/ADC_DelSig_INT.c ****         
 113:Generated_Source\PSoC5/ADC_DelSig_INT.c ****         /***************************************************************************
 114:Generated_Source\PSoC5/ADC_DelSig_INT.c ****         *  Custom Code
 115:Generated_Source\PSoC5/ADC_DelSig_INT.c ****         *  - add user ISR code between the following #START and #END tags
 116:Generated_Source\PSoC5/ADC_DelSig_INT.c ****         **************************************************************************/
 117:Generated_Source\PSoC5/ADC_DelSig_INT.c ****         /* `#START MAIN_ADC_ISR2`  */
 118:Generated_Source\PSoC5/ADC_DelSig_INT.c **** 
 119:Generated_Source\PSoC5/ADC_DelSig_INT.c ****         /* `#END`  */
 120:Generated_Source\PSoC5/ADC_DelSig_INT.c **** 
 121:Generated_Source\PSoC5/ADC_DelSig_INT.c ****         /* Stop the conversion conversion mode is single sample and resolution
 122:Generated_Source\PSoC5/ADC_DelSig_INT.c ****         *  is above 16 bits.
 123:Generated_Source\PSoC5/ADC_DelSig_INT.c ****         */
 124:Generated_Source\PSoC5/ADC_DelSig_INT.c ****         #if(ADC_DelSig_CFG2_RESOLUTION > 16 && \
 125:Generated_Source\PSoC5/ADC_DelSig_INT.c ****             ADC_DelSig_CFG2_CONVMODE == ADC_DelSig_MODE_SINGLE_SAMPLE)
 126:Generated_Source\PSoC5/ADC_DelSig_INT.c ****             ADC_DelSig_StopConvert();
 127:Generated_Source\PSoC5/ADC_DelSig_INT.c ****             /* Software flag for checking conversion complete or not. Will be used when
 128:Generated_Source\PSoC5/ADC_DelSig_INT.c ****             *   resolution is above 16 bits and conversion mode is single sample 
 129:Generated_Source\PSoC5/ADC_DelSig_INT.c **** 			*/
 130:Generated_Source\PSoC5/ADC_DelSig_INT.c ****             ADC_DelSig_convDone = ADC_DelSig_DEC_CONV_DONE;
 131:Generated_Source\PSoC5/ADC_DelSig_INT.c ****         #endif /* Single sample conversion mode with resolution above 16 bits */
 132:Generated_Source\PSoC5/ADC_DelSig_INT.c **** 
 133:Generated_Source\PSoC5/ADC_DelSig_INT.c ****         #ifdef ADC_DelSig_ISR2_EXIT_CALLBACK
 134:Generated_Source\PSoC5/ADC_DelSig_INT.c ****             ADC_DelSig_ISR2_ExitCallback();
 135:Generated_Source\PSoC5/ADC_DelSig_INT.c ****         #endif /* ADC_DelSig_ISR2_EXIT_CALLBACK */
 136:Generated_Source\PSoC5/ADC_DelSig_INT.c ****     }
 137:Generated_Source\PSoC5/ADC_DelSig_INT.c **** 
 138:Generated_Source\PSoC5/ADC_DelSig_INT.c **** 
 139:Generated_Source\PSoC5/ADC_DelSig_INT.c ****     /*****************************************************************************
 140:Generated_Source\PSoC5/ADC_DelSig_INT.c ****     * Function Name: ADC_DelSig_ISR3
 141:Generated_Source\PSoC5/ADC_DelSig_INT.c ****     ******************************************************************************
 142:Generated_Source\PSoC5/ADC_DelSig_INT.c ****     *
 143:Generated_Source\PSoC5/ADC_DelSig_INT.c ****     * Summary:
 144:Generated_Source\PSoC5/ADC_DelSig_INT.c ****     *  Handle Interrupt Service Routine.
 145:Generated_Source\PSoC5/ADC_DelSig_INT.c ****     *
 146:Generated_Source\PSoC5/ADC_DelSig_INT.c ****     * Parameters:
 147:Generated_Source\PSoC5/ADC_DelSig_INT.c ****     *  None
 148:Generated_Source\PSoC5/ADC_DelSig_INT.c ****     *
 149:Generated_Source\PSoC5/ADC_DelSig_INT.c ****     * Return:
 150:Generated_Source\PSoC5/ADC_DelSig_INT.c ****     *  None
 151:Generated_Source\PSoC5/ADC_DelSig_INT.c ****     *
ARM GAS  C:\Users\Tommi\AppData\Local\Temp\ccQC427g.s 			page 5


 152:Generated_Source\PSoC5/ADC_DelSig_INT.c ****     * Reentrant:
 153:Generated_Source\PSoC5/ADC_DelSig_INT.c ****     *  No
 154:Generated_Source\PSoC5/ADC_DelSig_INT.c ****     *
 155:Generated_Source\PSoC5/ADC_DelSig_INT.c ****     *****************************************************************************/
 156:Generated_Source\PSoC5/ADC_DelSig_INT.c ****     CY_ISR( ADC_DelSig_ISR3)
 157:Generated_Source\PSoC5/ADC_DelSig_INT.c ****     {
  78              		.loc 1 157 0
  79              		.cfi_startproc
  80              		@ args = 0, pretend = 0, frame = 0
  81              		@ frame_needed = 0, uses_anonymous_args = 0
  82              		@ link register save eliminated.
  83 0000 7047     		bx	lr
  84              		.cfi_endproc
  85              	.LFE65:
  86              		.size	ADC_DelSig_ISR3, .-ADC_DelSig_ISR3
  87 0002 00BF     		.section	.text.ADC_DelSig_ISR4,"ax",%progbits
  88              		.align	2
  89              		.global	ADC_DelSig_ISR4
  90              		.thumb
  91              		.thumb_func
  92              		.type	ADC_DelSig_ISR4, %function
  93              	ADC_DelSig_ISR4:
  94              	.LFB66:
 158:Generated_Source\PSoC5/ADC_DelSig_INT.c ****         #ifdef ADC_DelSig_ISR3_ENTRY_CALLBACK
 159:Generated_Source\PSoC5/ADC_DelSig_INT.c ****             ADC_DelSig_ISR3_EntryCallback();
 160:Generated_Source\PSoC5/ADC_DelSig_INT.c ****         #endif /* ADC_DelSig_ISR3_ENTRY_CALLBACK */        
 161:Generated_Source\PSoC5/ADC_DelSig_INT.c **** 
 162:Generated_Source\PSoC5/ADC_DelSig_INT.c ****         
 163:Generated_Source\PSoC5/ADC_DelSig_INT.c ****         /***************************************************************************
 164:Generated_Source\PSoC5/ADC_DelSig_INT.c ****         *  Custom Code
 165:Generated_Source\PSoC5/ADC_DelSig_INT.c ****         *  - add user ISR code between the following #START and #END tags
 166:Generated_Source\PSoC5/ADC_DelSig_INT.c ****         **************************************************************************/
 167:Generated_Source\PSoC5/ADC_DelSig_INT.c ****         /* `#START MAIN_ADC_ISR3`  */
 168:Generated_Source\PSoC5/ADC_DelSig_INT.c **** 
 169:Generated_Source\PSoC5/ADC_DelSig_INT.c ****         /* `#END`  */
 170:Generated_Source\PSoC5/ADC_DelSig_INT.c ****         
 171:Generated_Source\PSoC5/ADC_DelSig_INT.c ****         /* Stop the conversion if conversion mode is set to single sample and
 172:Generated_Source\PSoC5/ADC_DelSig_INT.c ****         *  resolution is above 16 bits.
 173:Generated_Source\PSoC5/ADC_DelSig_INT.c ****         */
 174:Generated_Source\PSoC5/ADC_DelSig_INT.c ****         #if(ADC_DelSig_CFG3_RESOLUTION > 16 && \
 175:Generated_Source\PSoC5/ADC_DelSig_INT.c ****             ADC_DelSig_CFG3_CONVMODE == ADC_DelSig_MODE_SINGLE_SAMPLE)
 176:Generated_Source\PSoC5/ADC_DelSig_INT.c ****             ADC_DelSig_StopConvert();
 177:Generated_Source\PSoC5/ADC_DelSig_INT.c ****             /* Software flag for checking conversion complete or not. Will be used when
 178:Generated_Source\PSoC5/ADC_DelSig_INT.c ****             *  resolution is above 16 bits and conversion mode is single sample 
 179:Generated_Source\PSoC5/ADC_DelSig_INT.c **** 			*/
 180:Generated_Source\PSoC5/ADC_DelSig_INT.c ****             ADC_DelSig_convDone = ADC_DelSig_DEC_CONV_DONE;
 181:Generated_Source\PSoC5/ADC_DelSig_INT.c ****         #endif /* Single sample conversion mode with resolution above 16 bits */
 182:Generated_Source\PSoC5/ADC_DelSig_INT.c **** 
 183:Generated_Source\PSoC5/ADC_DelSig_INT.c ****         #ifdef ADC_DelSig_ISR3_EXIT_CALLBACK
 184:Generated_Source\PSoC5/ADC_DelSig_INT.c ****             ADC_DelSig_ISR3_ExitCallback();
 185:Generated_Source\PSoC5/ADC_DelSig_INT.c ****         #endif /* ADC_DelSig_ISR3_EXIT_CALLBACK */        
 186:Generated_Source\PSoC5/ADC_DelSig_INT.c ****     }
 187:Generated_Source\PSoC5/ADC_DelSig_INT.c **** 
 188:Generated_Source\PSoC5/ADC_DelSig_INT.c **** 
 189:Generated_Source\PSoC5/ADC_DelSig_INT.c ****     /*****************************************************************************
 190:Generated_Source\PSoC5/ADC_DelSig_INT.c ****     * Function Name: ADC_DelSig_ISR4
 191:Generated_Source\PSoC5/ADC_DelSig_INT.c ****     ******************************************************************************
ARM GAS  C:\Users\Tommi\AppData\Local\Temp\ccQC427g.s 			page 6


 192:Generated_Source\PSoC5/ADC_DelSig_INT.c ****     *
 193:Generated_Source\PSoC5/ADC_DelSig_INT.c ****     * Summary:
 194:Generated_Source\PSoC5/ADC_DelSig_INT.c ****     *  Handle Interrupt Service Routine.
 195:Generated_Source\PSoC5/ADC_DelSig_INT.c ****     *
 196:Generated_Source\PSoC5/ADC_DelSig_INT.c ****     * Parameters:
 197:Generated_Source\PSoC5/ADC_DelSig_INT.c ****     *  None
 198:Generated_Source\PSoC5/ADC_DelSig_INT.c ****     *
 199:Generated_Source\PSoC5/ADC_DelSig_INT.c ****     * Return:
 200:Generated_Source\PSoC5/ADC_DelSig_INT.c ****     *  None
 201:Generated_Source\PSoC5/ADC_DelSig_INT.c ****     *
 202:Generated_Source\PSoC5/ADC_DelSig_INT.c ****     * Reentrant:
 203:Generated_Source\PSoC5/ADC_DelSig_INT.c ****     *  No
 204:Generated_Source\PSoC5/ADC_DelSig_INT.c ****     *
 205:Generated_Source\PSoC5/ADC_DelSig_INT.c ****     *****************************************************************************/
 206:Generated_Source\PSoC5/ADC_DelSig_INT.c ****     CY_ISR( ADC_DelSig_ISR4)
 207:Generated_Source\PSoC5/ADC_DelSig_INT.c ****     {
  95              		.loc 1 207 0
  96              		.cfi_startproc
  97              		@ args = 0, pretend = 0, frame = 0
  98              		@ frame_needed = 0, uses_anonymous_args = 0
  99              		@ link register save eliminated.
 100 0000 7047     		bx	lr
 101              		.cfi_endproc
 102              	.LFE66:
 103              		.size	ADC_DelSig_ISR4, .-ADC_DelSig_ISR4
 104 0002 00BF     		.text
 105              	.Letext0:
 106              		.file 2 "c:\\program files (x86)\\cypress\\psoc creator\\4.0\\psoc creator\\import\\gnu\\arm\\4.9.
 107              		.file 3 "c:\\program files (x86)\\cypress\\psoc creator\\4.0\\psoc creator\\import\\gnu\\arm\\4.9.
 108              		.file 4 "Generated_Source\\PSoC5\\cytypes.h"
 109              		.file 5 "Generated_Source\\PSoC5/core_cm3.h"
 110              		.file 6 "Generated_Source\\PSoC5\\ADC_DelSig.h"