ARM GAS  C:\Users\Tommi\AppData\Local\Temp\ccdJN79q.s 			page 1


   1              		.syntax unified
   2              		.cpu cortex-m3
   3              		.fpu softvfp
   4              		.eabi_attribute 20, 1
   5              		.eabi_attribute 21, 1
   6              		.eabi_attribute 23, 3
   7              		.eabi_attribute 24, 1
   8              		.eabi_attribute 25, 1
   9              		.eabi_attribute 26, 1
  10              		.eabi_attribute 30, 1
  11              		.eabi_attribute 34, 1
  12              		.eabi_attribute 18, 4
  13              		.thumb
  14              		.file	"Filter_INT.c"
  15              		.text
  16              	.Ltext0:
  17              		.cfi_sections	.debug_frame
  18              		.section	.text.Filter_INT_Interrupt,"ax",%progbits
  19              		.align	2
  20              		.global	Filter_INT_Interrupt
  21              		.thumb
  22              		.thumb_func
  23              		.type	Filter_INT_Interrupt, %function
  24              	Filter_INT_Interrupt:
  25              	.LFB66:
  26              		.file 1 "Generated_Source\\PSoC5\\Filter_INT.c"
   1:Generated_Source\PSoC5/Filter_INT.c **** /*******************************************************************************
   2:Generated_Source\PSoC5/Filter_INT.c **** * File Name: Filter_INT.c  
   3:Generated_Source\PSoC5/Filter_INT.c **** * Version 1.70
   4:Generated_Source\PSoC5/Filter_INT.c **** *
   5:Generated_Source\PSoC5/Filter_INT.c **** *  Description:
   6:Generated_Source\PSoC5/Filter_INT.c **** *   API for controlling the state of an interrupt.
   7:Generated_Source\PSoC5/Filter_INT.c **** *
   8:Generated_Source\PSoC5/Filter_INT.c **** *
   9:Generated_Source\PSoC5/Filter_INT.c **** *  Note:
  10:Generated_Source\PSoC5/Filter_INT.c **** *
  11:Generated_Source\PSoC5/Filter_INT.c **** ********************************************************************************
  12:Generated_Source\PSoC5/Filter_INT.c **** * Copyright 2008-2015, Cypress Semiconductor Corporation.  All rights reserved.
  13:Generated_Source\PSoC5/Filter_INT.c **** * You may use this file only in accordance with the license, terms, conditions, 
  14:Generated_Source\PSoC5/Filter_INT.c **** * disclaimers, and limitations in the end user license agreement accompanying 
  15:Generated_Source\PSoC5/Filter_INT.c **** * the software package with which this file was provided.
  16:Generated_Source\PSoC5/Filter_INT.c **** *******************************************************************************/
  17:Generated_Source\PSoC5/Filter_INT.c **** 
  18:Generated_Source\PSoC5/Filter_INT.c **** 
  19:Generated_Source\PSoC5/Filter_INT.c **** #include <cydevice_trm.h>
  20:Generated_Source\PSoC5/Filter_INT.c **** #include <CyLib.h>
  21:Generated_Source\PSoC5/Filter_INT.c **** #include <Filter_INT.h>
  22:Generated_Source\PSoC5/Filter_INT.c **** #include "cyapicallbacks.h"
  23:Generated_Source\PSoC5/Filter_INT.c **** 
  24:Generated_Source\PSoC5/Filter_INT.c **** 
  25:Generated_Source\PSoC5/Filter_INT.c **** 
  26:Generated_Source\PSoC5/Filter_INT.c **** #if !defined(Filter_INT__REMOVED) /* Check for removal by optimization */
  27:Generated_Source\PSoC5/Filter_INT.c **** 
  28:Generated_Source\PSoC5/Filter_INT.c **** /*******************************************************************************
  29:Generated_Source\PSoC5/Filter_INT.c **** *  Place your includes, defines and code here 
  30:Generated_Source\PSoC5/Filter_INT.c **** ********************************************************************************/
  31:Generated_Source\PSoC5/Filter_INT.c **** /* `#START Filter_INT_intc` */
ARM GAS  C:\Users\Tommi\AppData\Local\Temp\ccdJN79q.s 			page 2


  32:Generated_Source\PSoC5/Filter_INT.c **** #include "Filter.h"
  33:Generated_Source\PSoC5/Filter_INT.c **** #include "global.h"
  34:Generated_Source\PSoC5/Filter_INT.c ****     
  35:Generated_Source\PSoC5/Filter_INT.c **** extern uint32 raw_filter;
  36:Generated_Source\PSoC5/Filter_INT.c **** /* `#END` */
  37:Generated_Source\PSoC5/Filter_INT.c **** 
  38:Generated_Source\PSoC5/Filter_INT.c **** #ifndef CYINT_IRQ_BASE
  39:Generated_Source\PSoC5/Filter_INT.c **** #define CYINT_IRQ_BASE      16
  40:Generated_Source\PSoC5/Filter_INT.c **** #endif /* CYINT_IRQ_BASE */
  41:Generated_Source\PSoC5/Filter_INT.c **** #ifndef CYINT_VECT_TABLE
  42:Generated_Source\PSoC5/Filter_INT.c **** #define CYINT_VECT_TABLE    ((cyisraddress **) CYREG_NVIC_VECT_OFFSET)
  43:Generated_Source\PSoC5/Filter_INT.c **** #endif /* CYINT_VECT_TABLE */
  44:Generated_Source\PSoC5/Filter_INT.c **** 
  45:Generated_Source\PSoC5/Filter_INT.c **** /* Declared in startup, used to set unused interrupts to. */
  46:Generated_Source\PSoC5/Filter_INT.c **** CY_ISR_PROTO(IntDefaultHandler);
  47:Generated_Source\PSoC5/Filter_INT.c **** 
  48:Generated_Source\PSoC5/Filter_INT.c **** 
  49:Generated_Source\PSoC5/Filter_INT.c **** /*******************************************************************************
  50:Generated_Source\PSoC5/Filter_INT.c **** * Function Name: Filter_INT_Start
  51:Generated_Source\PSoC5/Filter_INT.c **** ********************************************************************************
  52:Generated_Source\PSoC5/Filter_INT.c **** *
  53:Generated_Source\PSoC5/Filter_INT.c **** * Summary:
  54:Generated_Source\PSoC5/Filter_INT.c **** *  Set up the interrupt and enable it. This function disables the interrupt, 
  55:Generated_Source\PSoC5/Filter_INT.c **** *  sets the default interrupt vector, sets the priority from the value in the
  56:Generated_Source\PSoC5/Filter_INT.c **** *  Design Wide Resources Interrupt Editor, then enables the interrupt to the 
  57:Generated_Source\PSoC5/Filter_INT.c **** *  interrupt controller.
  58:Generated_Source\PSoC5/Filter_INT.c **** *
  59:Generated_Source\PSoC5/Filter_INT.c **** * Parameters:  
  60:Generated_Source\PSoC5/Filter_INT.c **** *   None
  61:Generated_Source\PSoC5/Filter_INT.c **** *
  62:Generated_Source\PSoC5/Filter_INT.c **** * Return:
  63:Generated_Source\PSoC5/Filter_INT.c **** *   None
  64:Generated_Source\PSoC5/Filter_INT.c **** *
  65:Generated_Source\PSoC5/Filter_INT.c **** *******************************************************************************/
  66:Generated_Source\PSoC5/Filter_INT.c **** void Filter_INT_Start(void)
  67:Generated_Source\PSoC5/Filter_INT.c **** {
  68:Generated_Source\PSoC5/Filter_INT.c ****     /* For all we know the interrupt is active. */
  69:Generated_Source\PSoC5/Filter_INT.c ****     Filter_INT_Disable();
  70:Generated_Source\PSoC5/Filter_INT.c **** 
  71:Generated_Source\PSoC5/Filter_INT.c ****     /* Set the ISR to point to the Filter_INT Interrupt. */
  72:Generated_Source\PSoC5/Filter_INT.c ****     Filter_INT_SetVector(&Filter_INT_Interrupt);
  73:Generated_Source\PSoC5/Filter_INT.c **** 
  74:Generated_Source\PSoC5/Filter_INT.c ****     /* Set the priority. */
  75:Generated_Source\PSoC5/Filter_INT.c ****     Filter_INT_SetPriority((uint8)Filter_INT_INTC_PRIOR_NUMBER);
  76:Generated_Source\PSoC5/Filter_INT.c **** 
  77:Generated_Source\PSoC5/Filter_INT.c ****     /* Enable it. */
  78:Generated_Source\PSoC5/Filter_INT.c ****     Filter_INT_Enable();
  79:Generated_Source\PSoC5/Filter_INT.c **** }
  80:Generated_Source\PSoC5/Filter_INT.c **** 
  81:Generated_Source\PSoC5/Filter_INT.c **** 
  82:Generated_Source\PSoC5/Filter_INT.c **** /*******************************************************************************
  83:Generated_Source\PSoC5/Filter_INT.c **** * Function Name: Filter_INT_StartEx
  84:Generated_Source\PSoC5/Filter_INT.c **** ********************************************************************************
  85:Generated_Source\PSoC5/Filter_INT.c **** *
  86:Generated_Source\PSoC5/Filter_INT.c **** * Summary:
  87:Generated_Source\PSoC5/Filter_INT.c **** *  Sets up the interrupt and enables it. This function disables the interrupt,
  88:Generated_Source\PSoC5/Filter_INT.c **** *  sets the interrupt vector based on the address passed in, sets the priority 
ARM GAS  C:\Users\Tommi\AppData\Local\Temp\ccdJN79q.s 			page 3


  89:Generated_Source\PSoC5/Filter_INT.c **** *  from the value in the Design Wide Resources Interrupt Editor, then enables 
  90:Generated_Source\PSoC5/Filter_INT.c **** *  the interrupt to the interrupt controller.
  91:Generated_Source\PSoC5/Filter_INT.c **** *  
  92:Generated_Source\PSoC5/Filter_INT.c **** *  When defining ISR functions, the CY_ISR and CY_ISR_PROTO macros should be 
  93:Generated_Source\PSoC5/Filter_INT.c **** *  used to provide consistent definition across compilers:
  94:Generated_Source\PSoC5/Filter_INT.c **** *  
  95:Generated_Source\PSoC5/Filter_INT.c **** *  Function definition example:
  96:Generated_Source\PSoC5/Filter_INT.c **** *   CY_ISR(MyISR)
  97:Generated_Source\PSoC5/Filter_INT.c **** *   {
  98:Generated_Source\PSoC5/Filter_INT.c **** *   }
  99:Generated_Source\PSoC5/Filter_INT.c **** *   Function prototype example:
 100:Generated_Source\PSoC5/Filter_INT.c **** *   CY_ISR_PROTO(MyISR);
 101:Generated_Source\PSoC5/Filter_INT.c **** *
 102:Generated_Source\PSoC5/Filter_INT.c **** * Parameters:  
 103:Generated_Source\PSoC5/Filter_INT.c **** *   address: Address of the ISR to set in the interrupt vector table.
 104:Generated_Source\PSoC5/Filter_INT.c **** *
 105:Generated_Source\PSoC5/Filter_INT.c **** * Return:
 106:Generated_Source\PSoC5/Filter_INT.c **** *   None
 107:Generated_Source\PSoC5/Filter_INT.c **** *
 108:Generated_Source\PSoC5/Filter_INT.c **** *******************************************************************************/
 109:Generated_Source\PSoC5/Filter_INT.c **** void Filter_INT_StartEx(cyisraddress address)
 110:Generated_Source\PSoC5/Filter_INT.c **** {
 111:Generated_Source\PSoC5/Filter_INT.c ****     /* For all we know the interrupt is active. */
 112:Generated_Source\PSoC5/Filter_INT.c ****     Filter_INT_Disable();
 113:Generated_Source\PSoC5/Filter_INT.c **** 
 114:Generated_Source\PSoC5/Filter_INT.c ****     /* Set the ISR to point to the Filter_INT Interrupt. */
 115:Generated_Source\PSoC5/Filter_INT.c ****     Filter_INT_SetVector(address);
 116:Generated_Source\PSoC5/Filter_INT.c **** 
 117:Generated_Source\PSoC5/Filter_INT.c ****     /* Set the priority. */
 118:Generated_Source\PSoC5/Filter_INT.c ****     Filter_INT_SetPriority((uint8)Filter_INT_INTC_PRIOR_NUMBER);
 119:Generated_Source\PSoC5/Filter_INT.c **** 
 120:Generated_Source\PSoC5/Filter_INT.c ****     /* Enable it. */
 121:Generated_Source\PSoC5/Filter_INT.c ****     Filter_INT_Enable();
 122:Generated_Source\PSoC5/Filter_INT.c **** }
 123:Generated_Source\PSoC5/Filter_INT.c **** 
 124:Generated_Source\PSoC5/Filter_INT.c **** 
 125:Generated_Source\PSoC5/Filter_INT.c **** /*******************************************************************************
 126:Generated_Source\PSoC5/Filter_INT.c **** * Function Name: Filter_INT_Stop
 127:Generated_Source\PSoC5/Filter_INT.c **** ********************************************************************************
 128:Generated_Source\PSoC5/Filter_INT.c **** *
 129:Generated_Source\PSoC5/Filter_INT.c **** * Summary:
 130:Generated_Source\PSoC5/Filter_INT.c **** *   Disables and removes the interrupt.
 131:Generated_Source\PSoC5/Filter_INT.c **** *
 132:Generated_Source\PSoC5/Filter_INT.c **** * Parameters:  
 133:Generated_Source\PSoC5/Filter_INT.c **** *   None
 134:Generated_Source\PSoC5/Filter_INT.c **** *
 135:Generated_Source\PSoC5/Filter_INT.c **** * Return:
 136:Generated_Source\PSoC5/Filter_INT.c **** *   None
 137:Generated_Source\PSoC5/Filter_INT.c **** *
 138:Generated_Source\PSoC5/Filter_INT.c **** *******************************************************************************/
 139:Generated_Source\PSoC5/Filter_INT.c **** void Filter_INT_Stop(void)
 140:Generated_Source\PSoC5/Filter_INT.c **** {
 141:Generated_Source\PSoC5/Filter_INT.c ****     /* Disable this interrupt. */
 142:Generated_Source\PSoC5/Filter_INT.c ****     Filter_INT_Disable();
 143:Generated_Source\PSoC5/Filter_INT.c **** 
 144:Generated_Source\PSoC5/Filter_INT.c ****     /* Set the ISR to point to the passive one. */
 145:Generated_Source\PSoC5/Filter_INT.c ****     Filter_INT_SetVector(&IntDefaultHandler);
ARM GAS  C:\Users\Tommi\AppData\Local\Temp\ccdJN79q.s 			page 4


 146:Generated_Source\PSoC5/Filter_INT.c **** }
 147:Generated_Source\PSoC5/Filter_INT.c **** 
 148:Generated_Source\PSoC5/Filter_INT.c **** 
 149:Generated_Source\PSoC5/Filter_INT.c **** /*******************************************************************************
 150:Generated_Source\PSoC5/Filter_INT.c **** * Function Name: Filter_INT_Interrupt
 151:Generated_Source\PSoC5/Filter_INT.c **** ********************************************************************************
 152:Generated_Source\PSoC5/Filter_INT.c **** *
 153:Generated_Source\PSoC5/Filter_INT.c **** * Summary:
 154:Generated_Source\PSoC5/Filter_INT.c **** *   The default Interrupt Service Routine for Filter_INT.
 155:Generated_Source\PSoC5/Filter_INT.c **** *
 156:Generated_Source\PSoC5/Filter_INT.c **** *   Add custom code between the coments to keep the next version of this file
 157:Generated_Source\PSoC5/Filter_INT.c **** *   from over writting your code.
 158:Generated_Source\PSoC5/Filter_INT.c **** *
 159:Generated_Source\PSoC5/Filter_INT.c **** * Parameters:  
 160:Generated_Source\PSoC5/Filter_INT.c **** *
 161:Generated_Source\PSoC5/Filter_INT.c **** * Return:
 162:Generated_Source\PSoC5/Filter_INT.c **** *   None
 163:Generated_Source\PSoC5/Filter_INT.c **** *
 164:Generated_Source\PSoC5/Filter_INT.c **** *******************************************************************************/
 165:Generated_Source\PSoC5/Filter_INT.c **** CY_ISR(Filter_INT_Interrupt)
 166:Generated_Source\PSoC5/Filter_INT.c **** {
  27              		.loc 1 166 0
  28              		.cfi_startproc
  29              		@ args = 0, pretend = 0, frame = 0
  30              		@ frame_needed = 0, uses_anonymous_args = 0
  31 0000 08B5     		push	{r3, lr}
  32              		.cfi_def_cfa_offset 8
  33              		.cfi_offset 3, -8
  34              		.cfi_offset 14, -4
 167:Generated_Source\PSoC5/Filter_INT.c ****     #ifdef Filter_INT_INTERRUPT_INTERRUPT_CALLBACK
 168:Generated_Source\PSoC5/Filter_INT.c ****         Filter_INT_Interrupt_InterruptCallback();
 169:Generated_Source\PSoC5/Filter_INT.c ****     #endif /* Filter_INT_INTERRUPT_INTERRUPT_CALLBACK */ 
 170:Generated_Source\PSoC5/Filter_INT.c **** 
 171:Generated_Source\PSoC5/Filter_INT.c ****     /*  Place your Interrupt code here. */
 172:Generated_Source\PSoC5/Filter_INT.c ****     /* `#START Filter_INT_Interrupt` */
 173:Generated_Source\PSoC5/Filter_INT.c ****     raw_filter = Filter_Read24(Filter_CHANNEL_A);
  35              		.loc 1 173 0
  36 0002 0020     		movs	r0, #0
  37 0004 FFF7FEFF 		bl	Filter_Read24
  38              	.LVL0:
  39 0008 014B     		ldr	r3, .L3
  40 000a 1860     		str	r0, [r3]
  41 000c 08BD     		pop	{r3, pc}
  42              	.L4:
  43 000e 00BF     		.align	2
  44              	.L3:
  45 0010 00000000 		.word	raw_filter
  46              		.cfi_endproc
  47              	.LFE66:
  48              		.size	Filter_INT_Interrupt, .-Filter_INT_Interrupt
  49              		.section	.text.Filter_INT_SetVector,"ax",%progbits
  50              		.align	2
  51              		.global	Filter_INT_SetVector
  52              		.thumb
  53              		.thumb_func
  54              		.type	Filter_INT_SetVector, %function
  55              	Filter_INT_SetVector:
ARM GAS  C:\Users\Tommi\AppData\Local\Temp\ccdJN79q.s 			page 5


  56              	.LFB67:
 174:Generated_Source\PSoC5/Filter_INT.c ****     /* `#END` */
 175:Generated_Source\PSoC5/Filter_INT.c **** }
 176:Generated_Source\PSoC5/Filter_INT.c **** 
 177:Generated_Source\PSoC5/Filter_INT.c **** 
 178:Generated_Source\PSoC5/Filter_INT.c **** /*******************************************************************************
 179:Generated_Source\PSoC5/Filter_INT.c **** * Function Name: Filter_INT_SetVector
 180:Generated_Source\PSoC5/Filter_INT.c **** ********************************************************************************
 181:Generated_Source\PSoC5/Filter_INT.c **** *
 182:Generated_Source\PSoC5/Filter_INT.c **** * Summary:
 183:Generated_Source\PSoC5/Filter_INT.c **** *   Change the ISR vector for the Interrupt. Note calling Filter_INT_Start
 184:Generated_Source\PSoC5/Filter_INT.c **** *   will override any effect this method would have had. To set the vector 
 185:Generated_Source\PSoC5/Filter_INT.c **** *   before the component has been started use Filter_INT_StartEx instead.
 186:Generated_Source\PSoC5/Filter_INT.c **** * 
 187:Generated_Source\PSoC5/Filter_INT.c **** *   When defining ISR functions, the CY_ISR and CY_ISR_PROTO macros should be 
 188:Generated_Source\PSoC5/Filter_INT.c **** *   used to provide consistent definition across compilers:
 189:Generated_Source\PSoC5/Filter_INT.c **** *
 190:Generated_Source\PSoC5/Filter_INT.c **** *   Function definition example:
 191:Generated_Source\PSoC5/Filter_INT.c **** *   CY_ISR(MyISR)
 192:Generated_Source\PSoC5/Filter_INT.c **** *   {
 193:Generated_Source\PSoC5/Filter_INT.c **** *   }
 194:Generated_Source\PSoC5/Filter_INT.c **** *
 195:Generated_Source\PSoC5/Filter_INT.c **** *   Function prototype example:
 196:Generated_Source\PSoC5/Filter_INT.c **** *     CY_ISR_PROTO(MyISR);
 197:Generated_Source\PSoC5/Filter_INT.c **** *
 198:Generated_Source\PSoC5/Filter_INT.c **** * Parameters:
 199:Generated_Source\PSoC5/Filter_INT.c **** *   address: Address of the ISR to set in the interrupt vector table.
 200:Generated_Source\PSoC5/Filter_INT.c **** *
 201:Generated_Source\PSoC5/Filter_INT.c **** * Return:
 202:Generated_Source\PSoC5/Filter_INT.c **** *   None
 203:Generated_Source\PSoC5/Filter_INT.c **** *
 204:Generated_Source\PSoC5/Filter_INT.c **** *******************************************************************************/
 205:Generated_Source\PSoC5/Filter_INT.c **** void Filter_INT_SetVector(cyisraddress address)
 206:Generated_Source\PSoC5/Filter_INT.c **** {
  57              		.loc 1 206 0
  58              		.cfi_startproc
  59              		@ args = 0, pretend = 0, frame = 0
  60              		@ frame_needed = 0, uses_anonymous_args = 0
  61              		@ link register save eliminated.
  62              	.LVL1:
 207:Generated_Source\PSoC5/Filter_INT.c ****     cyisraddress * ramVectorTable;
 208:Generated_Source\PSoC5/Filter_INT.c **** 
 209:Generated_Source\PSoC5/Filter_INT.c ****     ramVectorTable = (cyisraddress *) *CYINT_VECT_TABLE;
  63              		.loc 1 209 0
  64 0000 024B     		ldr	r3, .L6
  65 0002 1B68     		ldr	r3, [r3]
  66              	.LVL2:
 210:Generated_Source\PSoC5/Filter_INT.c **** 
 211:Generated_Source\PSoC5/Filter_INT.c ****     ramVectorTable[CYINT_IRQ_BASE + (uint32)Filter_INT__INTC_NUMBER] = address;
  67              		.loc 1 211 0
  68 0004 C3F8B000 		str	r0, [r3, #176]
  69 0008 7047     		bx	lr
  70              	.L7:
  71 000a 00BF     		.align	2
  72              	.L6:
  73 000c 08ED00E0 		.word	-536810232
  74              		.cfi_endproc
ARM GAS  C:\Users\Tommi\AppData\Local\Temp\ccdJN79q.s 			page 6


  75              	.LFE67:
  76              		.size	Filter_INT_SetVector, .-Filter_INT_SetVector
  77              		.section	.text.Filter_INT_GetVector,"ax",%progbits
  78              		.align	2
  79              		.global	Filter_INT_GetVector
  80              		.thumb
  81              		.thumb_func
  82              		.type	Filter_INT_GetVector, %function
  83              	Filter_INT_GetVector:
  84              	.LFB68:
 212:Generated_Source\PSoC5/Filter_INT.c **** }
 213:Generated_Source\PSoC5/Filter_INT.c **** 
 214:Generated_Source\PSoC5/Filter_INT.c **** 
 215:Generated_Source\PSoC5/Filter_INT.c **** /*******************************************************************************
 216:Generated_Source\PSoC5/Filter_INT.c **** * Function Name: Filter_INT_GetVector
 217:Generated_Source\PSoC5/Filter_INT.c **** ********************************************************************************
 218:Generated_Source\PSoC5/Filter_INT.c **** *
 219:Generated_Source\PSoC5/Filter_INT.c **** * Summary:
 220:Generated_Source\PSoC5/Filter_INT.c **** *   Gets the "address" of the current ISR vector for the Interrupt.
 221:Generated_Source\PSoC5/Filter_INT.c **** *
 222:Generated_Source\PSoC5/Filter_INT.c **** * Parameters:
 223:Generated_Source\PSoC5/Filter_INT.c **** *   None
 224:Generated_Source\PSoC5/Filter_INT.c **** *
 225:Generated_Source\PSoC5/Filter_INT.c **** * Return:
 226:Generated_Source\PSoC5/Filter_INT.c **** *   Address of the ISR in the interrupt vector table.
 227:Generated_Source\PSoC5/Filter_INT.c **** *
 228:Generated_Source\PSoC5/Filter_INT.c **** *******************************************************************************/
 229:Generated_Source\PSoC5/Filter_INT.c **** cyisraddress Filter_INT_GetVector(void)
 230:Generated_Source\PSoC5/Filter_INT.c **** {
  85              		.loc 1 230 0
  86              		.cfi_startproc
  87              		@ args = 0, pretend = 0, frame = 0
  88              		@ frame_needed = 0, uses_anonymous_args = 0
  89              		@ link register save eliminated.
 231:Generated_Source\PSoC5/Filter_INT.c ****     cyisraddress * ramVectorTable;
 232:Generated_Source\PSoC5/Filter_INT.c **** 
 233:Generated_Source\PSoC5/Filter_INT.c ****     ramVectorTable = (cyisraddress *) *CYINT_VECT_TABLE;
  90              		.loc 1 233 0
  91 0000 024B     		ldr	r3, .L9
  92 0002 1B68     		ldr	r3, [r3]
  93              	.LVL3:
 234:Generated_Source\PSoC5/Filter_INT.c **** 
 235:Generated_Source\PSoC5/Filter_INT.c ****     return ramVectorTable[CYINT_IRQ_BASE + (uint32)Filter_INT__INTC_NUMBER];
 236:Generated_Source\PSoC5/Filter_INT.c **** }
  94              		.loc 1 236 0
  95 0004 D3F8B000 		ldr	r0, [r3, #176]
  96 0008 7047     		bx	lr
  97              	.L10:
  98 000a 00BF     		.align	2
  99              	.L9:
 100 000c 08ED00E0 		.word	-536810232
 101              		.cfi_endproc
 102              	.LFE68:
 103              		.size	Filter_INT_GetVector, .-Filter_INT_GetVector
 104              		.section	.text.Filter_INT_SetPriority,"ax",%progbits
 105              		.align	2
 106              		.global	Filter_INT_SetPriority
ARM GAS  C:\Users\Tommi\AppData\Local\Temp\ccdJN79q.s 			page 7


 107              		.thumb
 108              		.thumb_func
 109              		.type	Filter_INT_SetPriority, %function
 110              	Filter_INT_SetPriority:
 111              	.LFB69:
 237:Generated_Source\PSoC5/Filter_INT.c **** 
 238:Generated_Source\PSoC5/Filter_INT.c **** 
 239:Generated_Source\PSoC5/Filter_INT.c **** /*******************************************************************************
 240:Generated_Source\PSoC5/Filter_INT.c **** * Function Name: Filter_INT_SetPriority
 241:Generated_Source\PSoC5/Filter_INT.c **** ********************************************************************************
 242:Generated_Source\PSoC5/Filter_INT.c **** *
 243:Generated_Source\PSoC5/Filter_INT.c **** * Summary:
 244:Generated_Source\PSoC5/Filter_INT.c **** *   Sets the Priority of the Interrupt. 
 245:Generated_Source\PSoC5/Filter_INT.c **** *
 246:Generated_Source\PSoC5/Filter_INT.c **** *   Note calling Filter_INT_Start or Filter_INT_StartEx will 
 247:Generated_Source\PSoC5/Filter_INT.c **** *   override any effect this API would have had. This API should only be called
 248:Generated_Source\PSoC5/Filter_INT.c **** *   after Filter_INT_Start or Filter_INT_StartEx has been called. 
 249:Generated_Source\PSoC5/Filter_INT.c **** *   To set the initial priority for the component, use the Design-Wide Resources
 250:Generated_Source\PSoC5/Filter_INT.c **** *   Interrupt Editor.
 251:Generated_Source\PSoC5/Filter_INT.c **** *
 252:Generated_Source\PSoC5/Filter_INT.c **** *   Note This API has no effect on Non-maskable interrupt NMI).
 253:Generated_Source\PSoC5/Filter_INT.c **** *
 254:Generated_Source\PSoC5/Filter_INT.c **** * Parameters:
 255:Generated_Source\PSoC5/Filter_INT.c **** *   priority: Priority of the interrupt, 0 being the highest priority
 256:Generated_Source\PSoC5/Filter_INT.c **** *             PSoC 3 and PSoC 5LP: Priority is from 0 to 7.
 257:Generated_Source\PSoC5/Filter_INT.c **** *             PSoC 4: Priority is from 0 to 3.
 258:Generated_Source\PSoC5/Filter_INT.c **** *
 259:Generated_Source\PSoC5/Filter_INT.c **** * Return:
 260:Generated_Source\PSoC5/Filter_INT.c **** *   None
 261:Generated_Source\PSoC5/Filter_INT.c **** *
 262:Generated_Source\PSoC5/Filter_INT.c **** *******************************************************************************/
 263:Generated_Source\PSoC5/Filter_INT.c **** void Filter_INT_SetPriority(uint8 priority)
 264:Generated_Source\PSoC5/Filter_INT.c **** {
 112              		.loc 1 264 0
 113              		.cfi_startproc
 114              		@ args = 0, pretend = 0, frame = 0
 115              		@ frame_needed = 0, uses_anonymous_args = 0
 116              		@ link register save eliminated.
 117              	.LVL4:
 265:Generated_Source\PSoC5/Filter_INT.c ****     *Filter_INT_INTC_PRIOR = priority << 5;
 118              		.loc 1 265 0
 119 0000 4001     		lsls	r0, r0, #5
 120              	.LVL5:
 121 0002 C0B2     		uxtb	r0, r0
 122 0004 014B     		ldr	r3, .L12
 123 0006 1870     		strb	r0, [r3]
 124 0008 7047     		bx	lr
 125              	.L13:
 126 000a 00BF     		.align	2
 127              	.L12:
 128 000c 1CE400E0 		.word	-536812516
 129              		.cfi_endproc
 130              	.LFE69:
 131              		.size	Filter_INT_SetPriority, .-Filter_INT_SetPriority
 132              		.section	.text.Filter_INT_GetPriority,"ax",%progbits
 133              		.align	2
 134              		.global	Filter_INT_GetPriority
ARM GAS  C:\Users\Tommi\AppData\Local\Temp\ccdJN79q.s 			page 8


 135              		.thumb
 136              		.thumb_func
 137              		.type	Filter_INT_GetPriority, %function
 138              	Filter_INT_GetPriority:
 139              	.LFB70:
 266:Generated_Source\PSoC5/Filter_INT.c **** }
 267:Generated_Source\PSoC5/Filter_INT.c **** 
 268:Generated_Source\PSoC5/Filter_INT.c **** 
 269:Generated_Source\PSoC5/Filter_INT.c **** /*******************************************************************************
 270:Generated_Source\PSoC5/Filter_INT.c **** * Function Name: Filter_INT_GetPriority
 271:Generated_Source\PSoC5/Filter_INT.c **** ********************************************************************************
 272:Generated_Source\PSoC5/Filter_INT.c **** *
 273:Generated_Source\PSoC5/Filter_INT.c **** * Summary:
 274:Generated_Source\PSoC5/Filter_INT.c **** *   Gets the Priority of the Interrupt.
 275:Generated_Source\PSoC5/Filter_INT.c **** *
 276:Generated_Source\PSoC5/Filter_INT.c **** * Parameters:
 277:Generated_Source\PSoC5/Filter_INT.c **** *   None
 278:Generated_Source\PSoC5/Filter_INT.c **** *
 279:Generated_Source\PSoC5/Filter_INT.c **** * Return:
 280:Generated_Source\PSoC5/Filter_INT.c **** *   Priority of the interrupt, 0 being the highest priority
 281:Generated_Source\PSoC5/Filter_INT.c **** *    PSoC 3 and PSoC 5LP: Priority is from 0 to 7.
 282:Generated_Source\PSoC5/Filter_INT.c **** *    PSoC 4: Priority is from 0 to 3.
 283:Generated_Source\PSoC5/Filter_INT.c **** *
 284:Generated_Source\PSoC5/Filter_INT.c **** *******************************************************************************/
 285:Generated_Source\PSoC5/Filter_INT.c **** uint8 Filter_INT_GetPriority(void)
 286:Generated_Source\PSoC5/Filter_INT.c **** {
 140              		.loc 1 286 0
 141              		.cfi_startproc
 142              		@ args = 0, pretend = 0, frame = 0
 143              		@ frame_needed = 0, uses_anonymous_args = 0
 144              		@ link register save eliminated.
 287:Generated_Source\PSoC5/Filter_INT.c ****     uint8 priority;
 288:Generated_Source\PSoC5/Filter_INT.c **** 
 289:Generated_Source\PSoC5/Filter_INT.c **** 
 290:Generated_Source\PSoC5/Filter_INT.c ****     priority = *Filter_INT_INTC_PRIOR >> 5;
 145              		.loc 1 290 0
 146 0000 014B     		ldr	r3, .L15
 147 0002 1878     		ldrb	r0, [r3]	@ zero_extendqisi2
 148              	.LVL6:
 291:Generated_Source\PSoC5/Filter_INT.c **** 
 292:Generated_Source\PSoC5/Filter_INT.c ****     return priority;
 293:Generated_Source\PSoC5/Filter_INT.c **** }
 149              		.loc 1 293 0
 150 0004 4009     		lsrs	r0, r0, #5
 151              	.LVL7:
 152 0006 7047     		bx	lr
 153              	.L16:
 154              		.align	2
 155              	.L15:
 156 0008 1CE400E0 		.word	-536812516
 157              		.cfi_endproc
 158              	.LFE70:
 159              		.size	Filter_INT_GetPriority, .-Filter_INT_GetPriority
 160              		.section	.text.Filter_INT_Enable,"ax",%progbits
 161              		.align	2
 162              		.global	Filter_INT_Enable
 163              		.thumb
ARM GAS  C:\Users\Tommi\AppData\Local\Temp\ccdJN79q.s 			page 9


 164              		.thumb_func
 165              		.type	Filter_INT_Enable, %function
 166              	Filter_INT_Enable:
 167              	.LFB71:
 294:Generated_Source\PSoC5/Filter_INT.c **** 
 295:Generated_Source\PSoC5/Filter_INT.c **** 
 296:Generated_Source\PSoC5/Filter_INT.c **** /*******************************************************************************
 297:Generated_Source\PSoC5/Filter_INT.c **** * Function Name: Filter_INT_Enable
 298:Generated_Source\PSoC5/Filter_INT.c **** ********************************************************************************
 299:Generated_Source\PSoC5/Filter_INT.c **** *
 300:Generated_Source\PSoC5/Filter_INT.c **** * Summary:
 301:Generated_Source\PSoC5/Filter_INT.c **** *   Enables the interrupt to the interrupt controller. Do not call this function
 302:Generated_Source\PSoC5/Filter_INT.c **** *   unless ISR_Start() has been called or the functionality of the ISR_Start() 
 303:Generated_Source\PSoC5/Filter_INT.c **** *   function, which sets the vector and the priority, has been called.
 304:Generated_Source\PSoC5/Filter_INT.c **** *
 305:Generated_Source\PSoC5/Filter_INT.c **** * Parameters:
 306:Generated_Source\PSoC5/Filter_INT.c **** *   None
 307:Generated_Source\PSoC5/Filter_INT.c **** *
 308:Generated_Source\PSoC5/Filter_INT.c **** * Return:
 309:Generated_Source\PSoC5/Filter_INT.c **** *   None
 310:Generated_Source\PSoC5/Filter_INT.c **** *
 311:Generated_Source\PSoC5/Filter_INT.c **** *******************************************************************************/
 312:Generated_Source\PSoC5/Filter_INT.c **** void Filter_INT_Enable(void)
 313:Generated_Source\PSoC5/Filter_INT.c **** {
 168              		.loc 1 313 0
 169              		.cfi_startproc
 170              		@ args = 0, pretend = 0, frame = 0
 171              		@ frame_needed = 0, uses_anonymous_args = 0
 172              		@ link register save eliminated.
 314:Generated_Source\PSoC5/Filter_INT.c ****     /* Enable the general interrupt. */
 315:Generated_Source\PSoC5/Filter_INT.c ****     *Filter_INT_INTC_SET_EN = Filter_INT__INTC_MASK;
 173              		.loc 1 315 0
 174 0000 4FF08052 		mov	r2, #268435456
 175 0004 014B     		ldr	r3, .L18
 176 0006 1A60     		str	r2, [r3]
 177 0008 7047     		bx	lr
 178              	.L19:
 179 000a 00BF     		.align	2
 180              	.L18:
 181 000c 00E100E0 		.word	-536813312
 182              		.cfi_endproc
 183              	.LFE71:
 184              		.size	Filter_INT_Enable, .-Filter_INT_Enable
 185              		.section	.text.Filter_INT_GetState,"ax",%progbits
 186              		.align	2
 187              		.global	Filter_INT_GetState
 188              		.thumb
 189              		.thumb_func
 190              		.type	Filter_INT_GetState, %function
 191              	Filter_INT_GetState:
 192              	.LFB72:
 316:Generated_Source\PSoC5/Filter_INT.c **** }
 317:Generated_Source\PSoC5/Filter_INT.c **** 
 318:Generated_Source\PSoC5/Filter_INT.c **** 
 319:Generated_Source\PSoC5/Filter_INT.c **** /*******************************************************************************
 320:Generated_Source\PSoC5/Filter_INT.c **** * Function Name: Filter_INT_GetState
 321:Generated_Source\PSoC5/Filter_INT.c **** ********************************************************************************
ARM GAS  C:\Users\Tommi\AppData\Local\Temp\ccdJN79q.s 			page 10


 322:Generated_Source\PSoC5/Filter_INT.c **** *
 323:Generated_Source\PSoC5/Filter_INT.c **** * Summary:
 324:Generated_Source\PSoC5/Filter_INT.c **** *   Gets the state (enabled, disabled) of the Interrupt.
 325:Generated_Source\PSoC5/Filter_INT.c **** *
 326:Generated_Source\PSoC5/Filter_INT.c **** * Parameters:
 327:Generated_Source\PSoC5/Filter_INT.c **** *   None
 328:Generated_Source\PSoC5/Filter_INT.c **** *
 329:Generated_Source\PSoC5/Filter_INT.c **** * Return:
 330:Generated_Source\PSoC5/Filter_INT.c **** *   1 if enabled, 0 if disabled.
 331:Generated_Source\PSoC5/Filter_INT.c **** *
 332:Generated_Source\PSoC5/Filter_INT.c **** *******************************************************************************/
 333:Generated_Source\PSoC5/Filter_INT.c **** uint8 Filter_INT_GetState(void)
 334:Generated_Source\PSoC5/Filter_INT.c **** {
 193              		.loc 1 334 0
 194              		.cfi_startproc
 195              		@ args = 0, pretend = 0, frame = 0
 196              		@ frame_needed = 0, uses_anonymous_args = 0
 197              		@ link register save eliminated.
 335:Generated_Source\PSoC5/Filter_INT.c ****     /* Get the state of the general interrupt. */
 336:Generated_Source\PSoC5/Filter_INT.c ****     return ((*Filter_INT_INTC_SET_EN & (uint32)Filter_INT__INTC_MASK) != 0u) ? 1u:0u;
 198              		.loc 1 336 0
 199 0000 044B     		ldr	r3, .L23
 200 0002 1B68     		ldr	r3, [r3]
 201 0004 13F0805F 		tst	r3, #268435456
 202 0008 01D0     		beq	.L22
 203 000a 0120     		movs	r0, #1
 204 000c 7047     		bx	lr
 205              	.L22:
 206 000e 0020     		movs	r0, #0
 337:Generated_Source\PSoC5/Filter_INT.c **** }
 207              		.loc 1 337 0
 208 0010 7047     		bx	lr
 209              	.L24:
 210 0012 00BF     		.align	2
 211              	.L23:
 212 0014 00E100E0 		.word	-536813312
 213              		.cfi_endproc
 214              	.LFE72:
 215              		.size	Filter_INT_GetState, .-Filter_INT_GetState
 216              		.section	.text.Filter_INT_Disable,"ax",%progbits
 217              		.align	2
 218              		.global	Filter_INT_Disable
 219              		.thumb
 220              		.thumb_func
 221              		.type	Filter_INT_Disable, %function
 222              	Filter_INT_Disable:
 223              	.LFB73:
 338:Generated_Source\PSoC5/Filter_INT.c **** 
 339:Generated_Source\PSoC5/Filter_INT.c **** 
 340:Generated_Source\PSoC5/Filter_INT.c **** /*******************************************************************************
 341:Generated_Source\PSoC5/Filter_INT.c **** * Function Name: Filter_INT_Disable
 342:Generated_Source\PSoC5/Filter_INT.c **** ********************************************************************************
 343:Generated_Source\PSoC5/Filter_INT.c **** *
 344:Generated_Source\PSoC5/Filter_INT.c **** * Summary:
 345:Generated_Source\PSoC5/Filter_INT.c **** *   Disables the Interrupt in the interrupt controller.
 346:Generated_Source\PSoC5/Filter_INT.c **** *
 347:Generated_Source\PSoC5/Filter_INT.c **** * Parameters:
ARM GAS  C:\Users\Tommi\AppData\Local\Temp\ccdJN79q.s 			page 11


 348:Generated_Source\PSoC5/Filter_INT.c **** *   None
 349:Generated_Source\PSoC5/Filter_INT.c **** *
 350:Generated_Source\PSoC5/Filter_INT.c **** * Return:
 351:Generated_Source\PSoC5/Filter_INT.c **** *   None
 352:Generated_Source\PSoC5/Filter_INT.c **** *
 353:Generated_Source\PSoC5/Filter_INT.c **** *******************************************************************************/
 354:Generated_Source\PSoC5/Filter_INT.c **** void Filter_INT_Disable(void)
 355:Generated_Source\PSoC5/Filter_INT.c **** {
 224              		.loc 1 355 0
 225              		.cfi_startproc
 226              		@ args = 0, pretend = 0, frame = 0
 227              		@ frame_needed = 0, uses_anonymous_args = 0
 228              		@ link register save eliminated.
 356:Generated_Source\PSoC5/Filter_INT.c ****     /* Disable the general interrupt. */
 357:Generated_Source\PSoC5/Filter_INT.c ****     *Filter_INT_INTC_CLR_EN = Filter_INT__INTC_MASK;
 229              		.loc 1 357 0
 230 0000 4FF08052 		mov	r2, #268435456
 231 0004 014B     		ldr	r3, .L26
 232 0006 1A60     		str	r2, [r3]
 233 0008 7047     		bx	lr
 234              	.L27:
 235 000a 00BF     		.align	2
 236              	.L26:
 237 000c 80E100E0 		.word	-536813184
 238              		.cfi_endproc
 239              	.LFE73:
 240              		.size	Filter_INT_Disable, .-Filter_INT_Disable
 241              		.section	.text.Filter_INT_Start,"ax",%progbits
 242              		.align	2
 243              		.global	Filter_INT_Start
 244              		.thumb
 245              		.thumb_func
 246              		.type	Filter_INT_Start, %function
 247              	Filter_INT_Start:
 248              	.LFB63:
  67:Generated_Source\PSoC5/Filter_INT.c ****     /* For all we know the interrupt is active. */
 249              		.loc 1 67 0
 250              		.cfi_startproc
 251              		@ args = 0, pretend = 0, frame = 0
 252              		@ frame_needed = 0, uses_anonymous_args = 0
 253 0000 08B5     		push	{r3, lr}
 254              		.cfi_def_cfa_offset 8
 255              		.cfi_offset 3, -8
 256              		.cfi_offset 14, -4
  69:Generated_Source\PSoC5/Filter_INT.c **** 
 257              		.loc 1 69 0
 258 0002 FFF7FEFF 		bl	Filter_INT_Disable
 259              	.LVL8:
  72:Generated_Source\PSoC5/Filter_INT.c **** 
 260              		.loc 1 72 0
 261 0006 0448     		ldr	r0, .L30
 262 0008 FFF7FEFF 		bl	Filter_INT_SetVector
 263              	.LVL9:
  75:Generated_Source\PSoC5/Filter_INT.c **** 
 264              		.loc 1 75 0
 265 000c 0720     		movs	r0, #7
 266 000e FFF7FEFF 		bl	Filter_INT_SetPriority
ARM GAS  C:\Users\Tommi\AppData\Local\Temp\ccdJN79q.s 			page 12


 267              	.LVL10:
  78:Generated_Source\PSoC5/Filter_INT.c **** }
 268              		.loc 1 78 0
 269 0012 FFF7FEFF 		bl	Filter_INT_Enable
 270              	.LVL11:
 271 0016 08BD     		pop	{r3, pc}
 272              	.L31:
 273              		.align	2
 274              	.L30:
 275 0018 00000000 		.word	Filter_INT_Interrupt
 276              		.cfi_endproc
 277              	.LFE63:
 278              		.size	Filter_INT_Start, .-Filter_INT_Start
 279              		.section	.text.Filter_INT_StartEx,"ax",%progbits
 280              		.align	2
 281              		.global	Filter_INT_StartEx
 282              		.thumb
 283              		.thumb_func
 284              		.type	Filter_INT_StartEx, %function
 285              	Filter_INT_StartEx:
 286              	.LFB64:
 110:Generated_Source\PSoC5/Filter_INT.c ****     /* For all we know the interrupt is active. */
 287              		.loc 1 110 0
 288              		.cfi_startproc
 289              		@ args = 0, pretend = 0, frame = 0
 290              		@ frame_needed = 0, uses_anonymous_args = 0
 291              	.LVL12:
 292 0000 10B5     		push	{r4, lr}
 293              		.cfi_def_cfa_offset 8
 294              		.cfi_offset 4, -8
 295              		.cfi_offset 14, -4
 296 0002 0446     		mov	r4, r0
 112:Generated_Source\PSoC5/Filter_INT.c **** 
 297              		.loc 1 112 0
 298 0004 FFF7FEFF 		bl	Filter_INT_Disable
 299              	.LVL13:
 115:Generated_Source\PSoC5/Filter_INT.c **** 
 300              		.loc 1 115 0
 301 0008 2046     		mov	r0, r4
 302 000a FFF7FEFF 		bl	Filter_INT_SetVector
 303              	.LVL14:
 118:Generated_Source\PSoC5/Filter_INT.c **** 
 304              		.loc 1 118 0
 305 000e 0720     		movs	r0, #7
 306 0010 FFF7FEFF 		bl	Filter_INT_SetPriority
 307              	.LVL15:
 121:Generated_Source\PSoC5/Filter_INT.c **** }
 308              		.loc 1 121 0
 309 0014 FFF7FEFF 		bl	Filter_INT_Enable
 310              	.LVL16:
 311 0018 10BD     		pop	{r4, pc}
 312              		.cfi_endproc
 313              	.LFE64:
 314              		.size	Filter_INT_StartEx, .-Filter_INT_StartEx
 315 001a 00BF     		.section	.text.Filter_INT_Stop,"ax",%progbits
 316              		.align	2
 317              		.global	Filter_INT_Stop
ARM GAS  C:\Users\Tommi\AppData\Local\Temp\ccdJN79q.s 			page 13


 318              		.thumb
 319              		.thumb_func
 320              		.type	Filter_INT_Stop, %function
 321              	Filter_INT_Stop:
 322              	.LFB65:
 140:Generated_Source\PSoC5/Filter_INT.c ****     /* Disable this interrupt. */
 323              		.loc 1 140 0
 324              		.cfi_startproc
 325              		@ args = 0, pretend = 0, frame = 0
 326              		@ frame_needed = 0, uses_anonymous_args = 0
 327 0000 08B5     		push	{r3, lr}
 328              		.cfi_def_cfa_offset 8
 329              		.cfi_offset 3, -8
 330              		.cfi_offset 14, -4
 142:Generated_Source\PSoC5/Filter_INT.c **** 
 331              		.loc 1 142 0
 332 0002 FFF7FEFF 		bl	Filter_INT_Disable
 333              	.LVL17:
 145:Generated_Source\PSoC5/Filter_INT.c **** }
 334              		.loc 1 145 0
 335 0006 0248     		ldr	r0, .L36
 336 0008 FFF7FEFF 		bl	Filter_INT_SetVector
 337              	.LVL18:
 338 000c 08BD     		pop	{r3, pc}
 339              	.L37:
 340 000e 00BF     		.align	2
 341              	.L36:
 342 0010 00000000 		.word	IntDefaultHandler
 343              		.cfi_endproc
 344              	.LFE65:
 345              		.size	Filter_INT_Stop, .-Filter_INT_Stop
 346              		.section	.text.Filter_INT_SetPending,"ax",%progbits
 347              		.align	2
 348              		.global	Filter_INT_SetPending
 349              		.thumb
 350              		.thumb_func
 351              		.type	Filter_INT_SetPending, %function
 352              	Filter_INT_SetPending:
 353              	.LFB74:
 358:Generated_Source\PSoC5/Filter_INT.c **** }
 359:Generated_Source\PSoC5/Filter_INT.c **** 
 360:Generated_Source\PSoC5/Filter_INT.c **** 
 361:Generated_Source\PSoC5/Filter_INT.c **** /*******************************************************************************
 362:Generated_Source\PSoC5/Filter_INT.c **** * Function Name: Filter_INT_SetPending
 363:Generated_Source\PSoC5/Filter_INT.c **** ********************************************************************************
 364:Generated_Source\PSoC5/Filter_INT.c **** *
 365:Generated_Source\PSoC5/Filter_INT.c **** * Summary:
 366:Generated_Source\PSoC5/Filter_INT.c **** *   Causes the Interrupt to enter the pending state, a software method of
 367:Generated_Source\PSoC5/Filter_INT.c **** *   generating the interrupt.
 368:Generated_Source\PSoC5/Filter_INT.c **** *
 369:Generated_Source\PSoC5/Filter_INT.c **** * Parameters:
 370:Generated_Source\PSoC5/Filter_INT.c **** *   None
 371:Generated_Source\PSoC5/Filter_INT.c **** *
 372:Generated_Source\PSoC5/Filter_INT.c **** * Return:
 373:Generated_Source\PSoC5/Filter_INT.c **** *   None
 374:Generated_Source\PSoC5/Filter_INT.c **** *
 375:Generated_Source\PSoC5/Filter_INT.c **** * Side Effects:
ARM GAS  C:\Users\Tommi\AppData\Local\Temp\ccdJN79q.s 			page 14


 376:Generated_Source\PSoC5/Filter_INT.c **** *   If interrupts are enabled and the interrupt is set up properly, the ISR is
 377:Generated_Source\PSoC5/Filter_INT.c **** *   entered (depending on the priority of this interrupt and other pending 
 378:Generated_Source\PSoC5/Filter_INT.c **** *   interrupts).
 379:Generated_Source\PSoC5/Filter_INT.c **** *
 380:Generated_Source\PSoC5/Filter_INT.c **** *******************************************************************************/
 381:Generated_Source\PSoC5/Filter_INT.c **** void Filter_INT_SetPending(void)
 382:Generated_Source\PSoC5/Filter_INT.c **** {
 354              		.loc 1 382 0
 355              		.cfi_startproc
 356              		@ args = 0, pretend = 0, frame = 0
 357              		@ frame_needed = 0, uses_anonymous_args = 0
 358              		@ link register save eliminated.
 383:Generated_Source\PSoC5/Filter_INT.c ****     *Filter_INT_INTC_SET_PD = Filter_INT__INTC_MASK;
 359              		.loc 1 383 0
 360 0000 4FF08052 		mov	r2, #268435456
 361 0004 014B     		ldr	r3, .L39
 362 0006 1A60     		str	r2, [r3]
 363 0008 7047     		bx	lr
 364              	.L40:
 365 000a 00BF     		.align	2
 366              	.L39:
 367 000c 00E200E0 		.word	-536813056
 368              		.cfi_endproc
 369              	.LFE74:
 370              		.size	Filter_INT_SetPending, .-Filter_INT_SetPending
 371              		.section	.text.Filter_INT_ClearPending,"ax",%progbits
 372              		.align	2
 373              		.global	Filter_INT_ClearPending
 374              		.thumb
 375              		.thumb_func
 376              		.type	Filter_INT_ClearPending, %function
 377              	Filter_INT_ClearPending:
 378              	.LFB75:
 384:Generated_Source\PSoC5/Filter_INT.c **** }
 385:Generated_Source\PSoC5/Filter_INT.c **** 
 386:Generated_Source\PSoC5/Filter_INT.c **** 
 387:Generated_Source\PSoC5/Filter_INT.c **** /*******************************************************************************
 388:Generated_Source\PSoC5/Filter_INT.c **** * Function Name: Filter_INT_ClearPending
 389:Generated_Source\PSoC5/Filter_INT.c **** ********************************************************************************
 390:Generated_Source\PSoC5/Filter_INT.c **** *
 391:Generated_Source\PSoC5/Filter_INT.c **** * Summary:
 392:Generated_Source\PSoC5/Filter_INT.c **** *   Clears a pending interrupt in the interrupt controller.
 393:Generated_Source\PSoC5/Filter_INT.c **** *
 394:Generated_Source\PSoC5/Filter_INT.c **** *   Note Some interrupt sources are clear-on-read and require the block 
 395:Generated_Source\PSoC5/Filter_INT.c **** *   interrupt/status register to be read/cleared with the appropriate block API 
 396:Generated_Source\PSoC5/Filter_INT.c **** *   (GPIO, UART, and so on). Otherwise the ISR will continue to remain in 
 397:Generated_Source\PSoC5/Filter_INT.c **** *   pending state even though the interrupt itself is cleared using this API.
 398:Generated_Source\PSoC5/Filter_INT.c **** *
 399:Generated_Source\PSoC5/Filter_INT.c **** * Parameters:
 400:Generated_Source\PSoC5/Filter_INT.c **** *   None
 401:Generated_Source\PSoC5/Filter_INT.c **** *
 402:Generated_Source\PSoC5/Filter_INT.c **** * Return:
 403:Generated_Source\PSoC5/Filter_INT.c **** *   None
 404:Generated_Source\PSoC5/Filter_INT.c **** *
 405:Generated_Source\PSoC5/Filter_INT.c **** *******************************************************************************/
 406:Generated_Source\PSoC5/Filter_INT.c **** void Filter_INT_ClearPending(void)
 407:Generated_Source\PSoC5/Filter_INT.c **** {
ARM GAS  C:\Users\Tommi\AppData\Local\Temp\ccdJN79q.s 			page 15


 379              		.loc 1 407 0
 380              		.cfi_startproc
 381              		@ args = 0, pretend = 0, frame = 0
 382              		@ frame_needed = 0, uses_anonymous_args = 0
 383              		@ link register save eliminated.
 408:Generated_Source\PSoC5/Filter_INT.c ****     *Filter_INT_INTC_CLR_PD = Filter_INT__INTC_MASK;
 384              		.loc 1 408 0
 385 0000 4FF08052 		mov	r2, #268435456
 386 0004 014B     		ldr	r3, .L42
 387 0006 1A60     		str	r2, [r3]
 388 0008 7047     		bx	lr
 389              	.L43:
 390 000a 00BF     		.align	2
 391              	.L42:
 392 000c 80E200E0 		.word	-536812928
 393              		.cfi_endproc
 394              	.LFE75:
 395              		.size	Filter_INT_ClearPending, .-Filter_INT_ClearPending
 396              		.text
 397              	.Letext0:
 398              		.file 2 "c:\\program files (x86)\\cypress\\psoc creator\\4.0\\psoc creator\\import\\gnu\\arm\\4.9.
 399              		.file 3 "c:\\program files (x86)\\cypress\\psoc creator\\4.0\\psoc creator\\import\\gnu\\arm\\4.9.
 400              		.file 4 "Generated_Source\\PSoC5/cytypes.h"
 401              		.file 5 "Generated_Source\\PSoC5/core_cm3.h"
 402              		.file 6 "Generated_Source\\PSoC5\\Filter.h"