ARM GAS  C:\Users\Tommi\AppData\Local\Temp\ccmGQiEl.s 			page 1


   1              		.syntax unified
   2              		.cpu cortex-m3
   3              		.fpu softvfp
   4              		.eabi_attribute 20, 1
   5              		.eabi_attribute 21, 1
   6              		.eabi_attribute 23, 3
   7              		.eabi_attribute 24, 1
   8              		.eabi_attribute 25, 1
   9              		.eabi_attribute 26, 1
  10              		.eabi_attribute 30, 1
  11              		.eabi_attribute 34, 1
  12              		.eabi_attribute 18, 4
  13              		.thumb
  14              		.file	"serial.c"
  15              		.text
  16              	.Ltext0:
  17              		.cfi_sections	.debug_frame
  18              		.section	.text.SerialCheckConf,"ax",%progbits
  19              		.align	2
  20              		.global	SerialCheckConf
  21              		.thumb
  22              		.thumb_func
  23              		.type	SerialCheckConf, %function
  24              	SerialCheckConf:
  25              	.LFB63:
  26              		.file 1 "serial.c"
   1:serial.c      **** /* ========================================
   2:serial.c      **** *
   3:serial.c      **** * Copyright Thomas Neuhaus, 2016
   4:serial.c      **** * All Rights Reserved
   5:serial.c      **** * licensed under GPL v3
   6:serial.c      **** *
   7:serial.c      **** * ========================================
   8:serial.c      **** */
   9:serial.c      **** #include <serial.h>
  10:serial.c      **** 
  11:serial.c      **** void SerialCheckConf(){
  27              		.loc 1 11 0
  28              		.cfi_startproc
  29              		@ args = 0, pretend = 0, frame = 0
  30              		@ frame_needed = 0, uses_anonymous_args = 0
  31 0000 08B5     		push	{r3, lr}
  32              		.cfi_def_cfa_offset 8
  33              		.cfi_offset 3, -8
  34              		.cfi_offset 14, -4
  12:serial.c      ****     
  13:serial.c      ****     // Setup UART Interface again if connection parameters at the host computer have changed
  14:serial.c      ****     // e.g. Host can send double SET_INTERFACE request
  15:serial.c      ****     
  16:serial.c      ****     if (0u != USBUART_IsConfigurationChanged()){
  35              		.loc 1 16 0
  36 0002 FFF7FEFF 		bl	USBUART_IsConfigurationChanged
  37              	.LVL0:
  38 0006 20B1     		cbz	r0, .L1
  17:serial.c      ****         /* Initialize IN endpoints when device is configured. */
  18:serial.c      ****         if (0u != USBUART_GetConfiguration()){
  39              		.loc 1 18 0
ARM GAS  C:\Users\Tommi\AppData\Local\Temp\ccmGQiEl.s 			page 2


  40 0008 FFF7FEFF 		bl	USBUART_GetConfiguration
  41              	.LVL1:
  42 000c 08B1     		cbz	r0, .L1
  19:serial.c      ****             /* Enumeration is done, enable OUT endpoint to receive data 
  20:serial.c      ****             * from host. */
  21:serial.c      ****             USBUART_CDC_Init();
  43              		.loc 1 21 0
  44 000e FFF7FEFF 		bl	USBUART_CDC_Init
  45              	.LVL2:
  46              	.L1:
  47 0012 08BD     		pop	{r3, pc}
  48              		.cfi_endproc
  49              	.LFE63:
  50              		.size	SerialCheckConf, .-SerialCheckConf
  51              		.section	.text.SerialPrint,"ax",%progbits
  52              		.align	2
  53              		.global	SerialPrint
  54              		.thumb
  55              		.thumb_func
  56              		.type	SerialPrint, %function
  57              	SerialPrint:
  58              	.LFB64:
  22:serial.c      ****         }
  23:serial.c      ****     }
  24:serial.c      **** 
  25:serial.c      **** }
  26:serial.c      **** 
  27:serial.c      **** void SerialPrint(const char8 string[]){
  59              		.loc 1 27 0
  60              		.cfi_startproc
  61              		@ args = 0, pretend = 0, frame = 0
  62              		@ frame_needed = 0, uses_anonymous_args = 0
  63              	.LVL3:
  64 0000 10B5     		push	{r4, lr}
  65              		.cfi_def_cfa_offset 8
  66              		.cfi_offset 4, -8
  67              		.cfi_offset 14, -4
  68 0002 0446     		mov	r4, r0
  69              	.LVL4:
  70              	.L5:
  28:serial.c      ****     
  29:serial.c      ****     while( USBUART_CDCIsReady() == 0);
  71              		.loc 1 29 0 discriminator 1
  72 0004 FFF7FEFF 		bl	USBUART_CDCIsReady
  73              	.LVL5:
  74 0008 0028     		cmp	r0, #0
  75 000a FBD0     		beq	.L5
  30:serial.c      **** 	USBUART_PutString(string); // print message
  76              		.loc 1 30 0
  77 000c 2046     		mov	r0, r4
  78 000e FFF7FEFF 		bl	USBUART_PutString
  79              	.LVL6:
  80 0012 10BD     		pop	{r4, pc}
  81              		.cfi_endproc
  82              	.LFE64:
  83              		.size	SerialPrint, .-SerialPrint
  84              		.text
ARM GAS  C:\Users\Tommi\AppData\Local\Temp\ccmGQiEl.s 			page 3


  85              	.Letext0:
  86              		.file 2 "c:\\program files (x86)\\cypress\\psoc creator\\4.0\\psoc creator\\import\\gnu\\arm\\4.9.
  87              		.file 3 "c:\\program files (x86)\\cypress\\psoc creator\\4.0\\psoc creator\\import\\gnu\\arm\\4.9.
  88              		.file 4 "Generated_Source\\PSoC5/cytypes.h"
  89              		.file 5 "Generated_Source\\PSoC5/USBUART.h"
  90              		.file 6 "Generated_Source\\PSoC5/USBUART_cdc.h"
  91              		.file 7 "Generated_Source\\PSoC5/core_cm3.h"